target datalayout = "e-m:e-p270:32:32-p271:32:32-p272:64:64-i64:64-i128:128-f80:128-n8:16:32:64-S128"
target triple = "x86_64-pc-linux-gnu"

%struct.prov_aes_gcm_ctx_st = type { %struct.prov_gcm_ctx_st, %union.anon.0, %union.anon.1 }
%struct.prov_gcm_ctx_st = type { i32, i64, i64, i64, i64, i64, i64, i64, i64, i64, i32, i8, [128 x i8], [16 x i8], ptr, ptr, %struct.gcm128_context, ptr }
%struct.gcm128_context = type { %union.anon, %union.anon, %union.anon, %union.anon, %union.anon, %union.anon, [16 x %struct.u128], %struct.gcm_funcs_st, i32, i32, ptr, ptr, [48 x i8] }
%union.anon = type { [2 x i64] }
%struct.u128 = type { i64, i64 }
%struct.gcm_funcs_st = type { ptr, ptr, ptr }
%union.anon.0 = type { double, [240 x i8] }
%union.anon.1 = type { i32 }

@.str = private unnamed_addr constant [62 x i8] c"../openssl/providers/implementations/ciphers/cipher_aes_gcm.c\00", align 1

; Function Attrs: nounwind uwtable
define internal ptr @aes_gcm_dupctx(ptr noundef %0) #0 {
  %2 = alloca ptr, align 8
  %3 = alloca ptr, align 8
  %4 = alloca ptr, align 8
  %5 = alloca ptr, align 8
  %6 = alloca i32, align 4
  store ptr %0, ptr %3, align 8, !tbaa !3
  call void @llvm.lifetime.start.p0(i64 8, ptr %4) #3
  %7 = load ptr, ptr %3, align 8, !tbaa !3
  store ptr %7, ptr %4, align 8, !tbaa !7
  call void @llvm.lifetime.start.p0(i64 8, ptr %5) #3
  store ptr null, ptr %5, align 8, !tbaa !7
  %8 = call i32 @ossl_prov_is_running()
  %9 = icmp ne i32 %8, 0
  br i1 %9, label %11, label %10

10:                                               ; preds = %1
  store ptr null, ptr %2, align 8
  store i32 1, ptr %6, align 4
  br label %36

11:                                               ; preds = %1
  %12 = load ptr, ptr %4, align 8, !tbaa !7
  %13 = icmp eq ptr %12, null
  br i1 %13, label %14, label %15

14:                                               ; preds = %11
  store ptr null, ptr %2, align 8
  store i32 1, ptr %6, align 4
  br label %36

15:                                               ; preds = %11
  %16 = load ptr, ptr %4, align 8, !tbaa !7
  %17 = call noalias ptr @CRYPTO_memdup(ptr noundef %16, i64 noundef 960, ptr noundef @.str, i32 noundef 48)
  store ptr %17, ptr %5, align 8, !tbaa !7
  %18 = load ptr, ptr %5, align 8, !tbaa !7
  %19 = icmp ne ptr %18, null
  br i1 %19, label %20, label %34

20:                                               ; preds = %15
  %21 = load ptr, ptr %5, align 8, !tbaa !7
  %22 = getelementptr inbounds nuw %struct.prov_aes_gcm_ctx_st, ptr %21, i32 0, i32 0
  %23 = getelementptr inbounds nuw %struct.prov_gcm_ctx_st, ptr %22, i32 0, i32 16
  %24 = getelementptr inbounds nuw %struct.gcm128_context, ptr %23, i32 0, i32 11
  %25 = load ptr, ptr %24, align 8, !tbaa !13
  %26 = icmp ne ptr %25, null
  br i1 %26, label %27, label %34

27:                                               ; preds = %20
  %28 = load ptr, ptr %5, align 8, !tbaa !7
  %29 = getelementptr inbounds nuw %struct.prov_aes_gcm_ctx_st, ptr %28, i32 0, i32 1
  %30 = load ptr, ptr %5, align 8, !tbaa !7
  %31 = getelementptr inbounds nuw %struct.prov_aes_gcm_ctx_st, ptr %30, i32 0, i32 0
  %32 = getelementptr inbounds nuw %struct.prov_gcm_ctx_st, ptr %31, i32 0, i32 16
  %33 = getelementptr inbounds nuw %struct.gcm128_context, ptr %32, i32 0, i32 11
  store ptr %29, ptr %33, align 8, !tbaa !13
  br label %34

34:                                               ; preds = %27, %20, %15
  %35 = load ptr, ptr %5, align 8, !tbaa !7
  store ptr %35, ptr %2, align 8
  store i32 1, ptr %6, align 4
  br label %36

36:                                               ; preds = %34, %14, %10
  call void @llvm.lifetime.end.p0(i64 8, ptr %5) #3
  call void @llvm.lifetime.end.p0(i64 8, ptr %4) #3
  %37 = load ptr, ptr %2, align 8
  ret ptr %37
}

; Function Attrs: nounwind uwtable
define internal ptr @aes128gcm_dupctx(ptr noundef %0) #0 {
  %2 = alloca ptr, align 8
  store ptr %0, ptr %2, align 8, !tbaa !3
  %3 = load ptr, ptr %2, align 8, !tbaa !3
  %4 = call ptr @aes_gcm_dupctx(ptr noundef %3)
  ret ptr %4
}